(lp1
S'coast/bea2.jpg'
p2
aS'coast/arnat59.jpg'
p3
aS'coast/art294.jpg'
p4
aS'coast/art487.jpg'
p5
aS'coast/bea5.jpg'
p6
aS'coast/bea9.jpg'
p7
aS'coast/bea4.jpg'
p8
aS'coast/bea10.jpg'
p9
aS'coast/bea3.jpg'
p10
aS'coast/bea14.jpg'
p11
aS'mountain/gre242.jpg'
p12
aS'mountain/land18.jpg'
p13
aS'mountain/land16.jpg'
p14
aS'mountain/land6.jpg'
p15
aS'mountain/land4.jpg'
p16
aS'mountain/cdmc181.jpg'
p17
aS'mountain/art1132.jpg'
p18
aS'mountain/land11.jpg'
p19
aS'mountain/land10.jpg'
p20
aS'mountain/cdmc184.jpg'
p21
aS'highway/art336.jpg'
p22
aS'highway/art255.jpg'
p23
aS'highway/art250.jpg'
p24
aS'highway/art237.jpg'
p25
aS'highway/art328.jpg'
p26
aS'highway/art254.jpg'
p27
aS'highway/a866048.jpg'
p28
aS'highway/art489.jpg'
p29
aS'highway/art238.jpg'
p30
aS'highway/a866041.jpg'
p31
aS'tallbuilding/a212055.jpg'
p32
aS'tallbuilding/a212026.jpg'
p33
aS'tallbuilding/a212018.jpg'
p34
aS'tallbuilding/a223039.jpg'
p35
aS'tallbuilding/a212033.jpg'
p36
aS'tallbuilding/a244030.jpg'
p37
aS'tallbuilding/a212017.jpg'
p38
aS'tallbuilding/a244040.jpg'
p39
aS'tallbuilding/a244009.jpg'
p40
aS'tallbuilding/a212044.jpg'
p41
aS'inside_city/a212024.jpg'
p42
aS'inside_city/a212025.jpg'
p43
aS'inside_city/a111017.jpg'
p44
aS'inside_city/a129035.jpg'
p45
aS'inside_city/a212052.jpg'
p46
aS'inside_city/a129048.jpg'
p47
aS'inside_city/a248032.jpg'
p48
aS'inside_city/a48009.jpg'
p49
aS'inside_city/a140032.jpg'
p50
aS'inside_city/a79054.jpg'
p51
aS'Opencountry/cdmc722.jpg'
p52
aS'Opencountry/cdmc276.jpg'
p53
aS'Opencountry/cdmc710.jpg'
p54
aS'Opencountry/cdmc712.jpg'
p55
aS'Opencountry/cdmc937.jpg'
p56
aS'Opencountry/art582.jpg'
p57
aS'Opencountry/fie5.jpg'
p58
aS'Opencountry/des16.jpg'
p59
aS'Opencountry/cdmc354.jpg'
p60
aS'Opencountry/cdmc713.jpg'
p61
aS'forest/cdmc280.jpg'
p62
aS'forest/art114.jpg'
p63
aS'forest/bost101.jpg'
p64
aS'forest/cdmc101.jpg'
p65
aS'forest/cdmc12.jpg'
p66
aS'forest/bost103.jpg'
p67
aS'forest/bost102.jpg'
p68
aS'forest/cdmc271.jpg'
p69
aS'forest/bost100.jpg'
p70
aS'forest/cdmc277.jpg'
p71
aS'street/art549.jpg'
p72
aS'street/a79094.jpg'
p73
aS'street/art757.jpg'
p74
aS'street/a714064.jpg'
p75
aS'street/art511.jpg'
p76
aS'street/a205062.jpg'
p77
aS'street/a281067.jpg'
p78
aS'street/a232022.jpg'
p79
aS'street/art256.jpg'
p80
aS'street/art546.jpg'
p81
a.