(lp1
S'Opencountry/art582.jpg'
p2
aS'Opencountry/cdmc276.jpg'
p3
aS'Opencountry/cdmc354.jpg'
p4
aS'Opencountry/cdmc710.jpg'
p5
aS'Opencountry/cdmc712.jpg'
p6
aS'Opencountry/cdmc713.jpg'
p7
aS'Opencountry/cdmc722.jpg'
p8
aS'Opencountry/cdmc937.jpg'
p9
aS'Opencountry/des16.jpg'
p10
aS'Opencountry/fie13.jpg'
p11
aS'Opencountry/fie20.jpg'
p12
aS'Opencountry/fie23.jpg'
p13
aS'Opencountry/fie26.jpg'
p14
aS'Opencountry/fie27.jpg'
p15
aS'Opencountry/fie28.jpg'
p16
aS'Opencountry/fie33.jpg'
p17
aS'Opencountry/fie35.jpg'
p18
aS'Opencountry/fie37.jpg'
p19
aS'Opencountry/fie43.jpg'
p20
aS'Opencountry/fie48.jpg'
p21
aS'Opencountry/fie5.jpg'
p22
aS'Opencountry/fie50.jpg'
p23
aS'Opencountry/fie7.jpg'
p24
aS'Opencountry/land194.jpg'
p25
aS'Opencountry/land202.jpg'
p26
aS'Opencountry/land206.jpg'
p27
aS'Opencountry/land218.jpg'
p28
aS'Opencountry/land220.jpg'
p29
aS'Opencountry/land238.jpg'
p30
aS'Opencountry/land239.jpg'
p31
aS'Opencountry/land269.jpg'
p32
aS'Opencountry/land285.jpg'
p33
aS'Opencountry/land290.jpg'
p34
aS'Opencountry/land291.jpg'
p35
aS'Opencountry/land298.jpg'
p36
aS'Opencountry/land299.jpg'
p37
aS'Opencountry/land342.jpg'
p38
aS'Opencountry/land345.jpg'
p39
aS'Opencountry/land348.jpg'
p40
aS'Opencountry/land350.jpg'
p41
aS'Opencountry/land351.jpg'
p42
aS'Opencountry/land352.jpg'
p43
aS'Opencountry/land353.jpg'
p44
aS'Opencountry/land355.jpg'
p45
aS'Opencountry/land364.jpg'
p46
aS'Opencountry/land381.jpg'
p47
aS'Opencountry/land388.jpg'
p48
aS'Opencountry/land406.jpg'
p49
aS'Opencountry/land41.jpg'
p50
aS'Opencountry/land416.jpg'
p51
aS'Opencountry/land42.jpg'
p52
aS'Opencountry/land431.jpg'
p53
aS'Opencountry/land433.jpg'
p54
aS'Opencountry/land443.jpg'
p55
aS'Opencountry/land472.jpg'
p56
aS'Opencountry/land48.jpg'
p57
aS'Opencountry/land493.jpg'
p58
aS'Opencountry/land494.jpg'
p59
aS'Opencountry/land500.jpg'
p60
aS'Opencountry/land501.jpg'
p61
aS'Opencountry/land505.jpg'
p62
aS'Opencountry/land507.jpg'
p63
aS'Opencountry/land51.jpg'
p64
aS'Opencountry/land513.jpg'
p65
aS'Opencountry/land515.jpg'
p66
aS'Opencountry/land516.jpg'
p67
aS'Opencountry/land520.jpg'
p68
aS'Opencountry/land525.jpg'
p69
aS'Opencountry/land526.jpg'
p70
aS'Opencountry/land540.jpg'
p71
aS'Opencountry/land545.jpg'
p72
aS'Opencountry/land549.jpg'
p73
aS'Opencountry/land550.jpg'
p74
aS'Opencountry/land555.jpg'
p75
aS'Opencountry/land557.jpg'
p76
aS'Opencountry/land560.jpg'
p77
aS'Opencountry/land565.jpg'
p78
aS'Opencountry/land573.jpg'
p79
aS'Opencountry/land575.jpg'
p80
aS'Opencountry/land577.jpg'
p81
aS'Opencountry/land60.jpg'
p82
aS'Opencountry/land600.jpg'
p83
aS'Opencountry/land604.jpg'
p84
aS'Opencountry/land606.jpg'
p85
aS'Opencountry/land61.jpg'
p86
aS'Opencountry/land616.jpg'
p87
aS'Opencountry/land618.jpg'
p88
aS'Opencountry/land625.jpg'
p89
aS'Opencountry/land639.jpg'
p90
aS'Opencountry/land640.jpg'
p91
aS'Opencountry/land645.jpg'
p92
aS'Opencountry/land651.jpg'
p93
aS'Opencountry/land652.jpg'
p94
aS'Opencountry/land656.jpg'
p95
aS'Opencountry/land658.jpg'
p96
aS'Opencountry/land661.jpg'
p97
aS'Opencountry/land662.jpg'
p98
aS'Opencountry/land663.jpg'
p99
aS'Opencountry/land665.jpg'
p100
aS'Opencountry/land666.jpg'
p101
aS'Opencountry/land681.jpg'
p102
aS'Opencountry/land684.jpg'
p103
aS'Opencountry/land689.jpg'
p104
aS'Opencountry/land690.jpg'
p105
aS'Opencountry/land691.jpg'
p106
aS'Opencountry/land692.jpg'
p107
aS'Opencountry/land693.jpg'
p108
aS'Opencountry/land694.jpg'
p109
aS'Opencountry/land704.jpg'
p110
aS'Opencountry/land709.jpg'
p111
aS'Opencountry/land731.jpg'
p112
aS'Opencountry/land732.jpg'
p113
aS'Opencountry/land764.jpg'
p114
aS'Opencountry/land793.jpg'
p115
aS'Opencountry/land797.jpg'
p116
aS'Opencountry/land80.jpg'
p117
aS'Opencountry/land817.jpg'
p118
aS'Opencountry/land823.jpg'
p119
aS'Opencountry/land825.jpg'
p120
aS'Opencountry/land829.jpg'
p121
aS'Opencountry/land833.jpg'
p122
aS'Opencountry/land835.jpg'
p123
aS'Opencountry/land87.jpg'
p124
aS'Opencountry/land891.jpg'
p125
aS'Opencountry/land905.jpg'
p126
aS'Opencountry/land911.jpg'
p127
aS'Opencountry/land918.jpg'
p128
aS'Opencountry/land947.jpg'
p129
aS'Opencountry/land952.jpg'
p130
aS'Opencountry/land957.jpg'
p131
aS'Opencountry/land964.jpg'
p132
aS'Opencountry/land965.jpg'
p133
aS'Opencountry/moun17.jpg'
p134
aS'Opencountry/moun21.jpg'
p135
aS'Opencountry/moun36.jpg'
p136
aS'Opencountry/moun8.jpg'
p137
aS'Opencountry/n18003.jpg'
p138
aS'Opencountry/n18041.jpg'
p139
aS'Opencountry/n18053.jpg'
p140
aS'Opencountry/n18054.jpg'
p141
aS'Opencountry/n18077.jpg'
p142
aS'Opencountry/n18080.jpg'
p143
aS'Opencountry/n199000.jpg'
p144
aS'Opencountry/n213045.jpg'
p145
aS'Opencountry/n213060.jpg'
p146
aS'Opencountry/n213061.jpg'
p147
aS'Opencountry/n213062.jpg'
p148
aS'Opencountry/n251011.jpg'
p149
aS'Opencountry/n251015.jpg'
p150
aS'Opencountry/n251016.jpg'
p151
aS'Opencountry/n266024.jpg'
p152
aS'Opencountry/n291048.jpg'
p153
aS'Opencountry/n291051.jpg'
p154
aS'Opencountry/n291056.jpg'
p155
aS'Opencountry/n291058.jpg'
p156
aS'Opencountry/n291085.jpg'
p157
aS'Opencountry/n295006.jpg'
p158
aS'Opencountry/n295072.jpg'
p159
aS'Opencountry/n347020.jpg'
p160
aS'Opencountry/n371053.jpg'
p161
aS'Opencountry/n371057.jpg'
p162
aS'Opencountry/n371061.jpg'
p163
aS'Opencountry/n490003.jpg'
p164
aS'Opencountry/n490070.jpg'
p165
aS'Opencountry/n676082.jpg'
p166
aS'Opencountry/n676095.jpg'
p167
aS'Opencountry/nat1002.jpg'
p168
aS'Opencountry/nat1010.jpg'
p169
aS'Opencountry/nat1026.jpg'
p170
aS'Opencountry/nat1034.jpg'
p171
aS'Opencountry/nat1105.jpg'
p172
aS'Opencountry/nat1111.jpg'
p173
aS'Opencountry/nat1117.jpg'
p174
aS'Opencountry/nat1118.jpg'
p175
aS'Opencountry/nat1122.jpg'
p176
aS'Opencountry/nat1145.jpg'
p177
aS'Opencountry/nat1263.jpg'
p178
aS'Opencountry/nat164.jpg'
p179
aS'Opencountry/nat173.jpg'
p180
aS'Opencountry/nat190.jpg'
p181
aS'Opencountry/nat355.jpg'
p182
aS'Opencountry/nat423.jpg'
p183
aS'Opencountry/nat446.jpg'
p184
aS'Opencountry/nat455.jpg'
p185
aS'Opencountry/nat457.jpg'
p186
aS'Opencountry/nat499.jpg'
p187
aS'Opencountry/nat502.jpg'
p188
aS'Opencountry/nat511.jpg'
p189
aS'Opencountry/nat524.jpg'
p190
aS'Opencountry/nat582.jpg'
p191
aS'Opencountry/nat589.jpg'
p192
aS'Opencountry/nat609.jpg'
p193
aS'Opencountry/nat615.jpg'
p194
aS'Opencountry/nat618.jpg'
p195
aS'Opencountry/nat626.jpg'
p196
aS'Opencountry/nat654.jpg'
p197
aS'Opencountry/nat678.jpg'
p198
aS'Opencountry/nat718.jpg'
p199
aS'Opencountry/nat724.jpg'
p200
aS'Opencountry/nat731.jpg'
p201
aS'Opencountry/nat733.jpg'
p202
aS'Opencountry/nat748.jpg'
p203
aS'Opencountry/nat750.jpg'
p204
aS'Opencountry/nat780.jpg'
p205
aS'Opencountry/nat802.jpg'
p206
aS'Opencountry/nat811.jpg'
p207
aS'Opencountry/nat823.jpg'
p208
aS'Opencountry/nat834.jpg'
p209
aS'Opencountry/nat873.jpg'
p210
aS'Opencountry/nat874.jpg'
p211
aS'Opencountry/nat896.jpg'
p212
aS'Opencountry/nat932.jpg'
p213
aS'Opencountry/nat955.jpg'
p214
aS'Opencountry/natu100.jpg'
p215
aS'Opencountry/natu136.jpg'
p216
aS'Opencountry/natu176.jpg'
p217
aS'Opencountry/natu179.jpg'
p218
aS'Opencountry/natu181.jpg'
p219
aS'Opencountry/natu183.jpg'
p220
aS'Opencountry/natu307.jpg'
p221
aS'Opencountry/natu32.jpg'
p222
aS'Opencountry/natu380.jpg'
p223
aS'Opencountry/natu384.jpg'
p224
aS'Opencountry/natu41.jpg'
p225
aS'Opencountry/natu413.jpg'
p226
aS'Opencountry/natu45.jpg'
p227
aS'Opencountry/natu503.jpg'
p228
aS'Opencountry/natu506.jpg'
p229
aS'Opencountry/natu51.jpg'
p230
aS'Opencountry/natu524.jpg'
p231
aS'Opencountry/natu525.jpg'
p232
aS'Opencountry/natu529.jpg'
p233
aS'Opencountry/natu535.jpg'
p234
aS'Opencountry/natu541.jpg'
p235
aS'Opencountry/natu544.jpg'
p236
aS'Opencountry/natu546.jpg'
p237
aS'Opencountry/natu55.jpg'
p238
aS'Opencountry/natu552.jpg'
p239
aS'Opencountry/natu557.jpg'
p240
aS'Opencountry/natu559.jpg'
p241
aS'Opencountry/natu563.jpg'
p242
aS'Opencountry/natu574.jpg'
p243
aS'Opencountry/natu576.jpg'
p244
aS'Opencountry/natu583.jpg'
p245
aS'Opencountry/natu586.jpg'
p246
aS'Opencountry/natu593.jpg'
p247
aS'Opencountry/natu594.jpg'
p248
aS'Opencountry/natu596.jpg'
p249
aS'Opencountry/natu600.jpg'
p250
aS'Opencountry/natu65.jpg'
p251
aS'Opencountry/natu652.jpg'
p252
aS'Opencountry/natu69.jpg'
p253
aS'Opencountry/natu726.jpg'
p254
aS'Opencountry/natu734.jpg'
p255
aS'Opencountry/natu735.jpg'
p256
aS'Opencountry/natu77.jpg'
p257
aS'Opencountry/natu790.jpg'
p258
aS'Opencountry/natu83.jpg'
p259
aS'Opencountry/natu832.jpg'
p260
aS'Opencountry/natu841.jpg'
p261
aS'Opencountry/natu843.jpg'
p262
aS'Opencountry/natu852.jpg'
p263
aS'Opencountry/natu856.jpg'
p264
aS'Opencountry/natu864.jpg'
p265
aS'Opencountry/natu883.jpg'
p266
aS'Opencountry/natu885.jpg'
p267
aS'Opencountry/natu89.jpg'
p268
aS'Opencountry/natu92.jpg'
p269
aS'Opencountry/natu921.jpg'
p270
aS'Opencountry/natu932.jpg'
p271
aS'Opencountry/natu935.jpg'
p272
aS'Opencountry/natu939.jpg'
p273
aS'Opencountry/natu984.jpg'
p274
aS'Opencountry/natu998.jpg'
p275
aS'Opencountry/open11.jpg'
p276
aS'Opencountry/open12.jpg'
p277
aS'Opencountry/open35.jpg'
p278
aS'Opencountry/open37.jpg'
p279
aS'Opencountry/open38.jpg'
p280
aS'Opencountry/open42.jpg'
p281
aS'Opencountry/open53.jpg'
p282
aS'Opencountry/open55.jpg'
p283
aS'Opencountry/open61.jpg'
p284
aS'Opencountry/osun12.jpg'
p285
aS'Opencountry/sclos30.jpg'
p286
aS'Opencountry/sopen10.jpg'
p287
aS'Opencountry/sopen15.jpg'
p288
aS'Opencountry/sopen61.jpg'
p289
aS'Opencountry/tell56.jpg'
p290
aS'Opencountry/tell59.jpg'
p291
aS'Opencountry/tell67.jpg'
p292
aS'Opencountry/urb969.jpg'
p293
aS'coast/arnat59.jpg'
p294
aS'coast/art294.jpg'
p295
aS'coast/art487.jpg'
p296
aS'coast/bea10.jpg'
p297
aS'coast/bea14.jpg'
p298
aS'coast/bea2.jpg'
p299
aS'coast/bea24.jpg'
p300
aS'coast/bea26.jpg'
p301
aS'coast/bea27.jpg'
p302
aS'coast/bea3.jpg'
p303
aS'coast/bea30.jpg'
p304
aS'coast/bea38.jpg'
p305
aS'coast/bea4.jpg'
p306
aS'coast/bea5.jpg'
p307
aS'coast/bea9.jpg'
p308
aS'coast/cdmc1000.jpg'
p309
aS'coast/cdmc123.jpg'
p310
aS'coast/cdmc706.jpg'
p311
aS'coast/cdmc821.jpg'
p312
aS'coast/cdmc825.jpg'
p313
aS'coast/cdmc838.jpg'
p314
aS'coast/cdmc845.jpg'
p315
aS'coast/cdmc850.jpg'
p316
aS'coast/cdmc860.jpg'
p317
aS'coast/cdmc862.jpg'
p318
aS'coast/cdmc871.jpg'
p319
aS'coast/cdmc873.jpg'
p320
aS'coast/cdmc878.jpg'
p321
aS'coast/cdmc889.jpg'
p322
aS'coast/cdmc891.jpg'
p323
aS'coast/cdmc922.jpg'
p324
aS'coast/cdmc923.jpg'
p325
aS'coast/cdmc927.jpg'
p326
aS'coast/cdmc929.jpg'
p327
aS'coast/cdmc933.jpg'
p328
aS'coast/cdmc940.jpg'
p329
aS'coast/cdmc942.jpg'
p330
aS'coast/cdmc948.jpg'
p331
aS'coast/cdmc953.jpg'
p332
aS'coast/cdmc954.jpg'
p333
aS'coast/cdmc955.jpg'
p334
aS'coast/cdmc960.jpg'
p335
aS'coast/cdmc969.jpg'
p336
aS'coast/cdmc976.jpg'
p337
aS'coast/cdmc977.jpg'
p338
aS'coast/cdmc988.jpg'
p339
aS'coast/cdmc989.jpg'
p340
aS'coast/cdmc990.jpg'
p341
aS'coast/cdmc991.jpg'
p342
aS'coast/land100.jpg'
p343
aS'coast/land111.jpg'
p344
aS'coast/land113.jpg'
p345
aS'coast/land114.jpg'
p346
aS'coast/land115.jpg'
p347
aS'coast/land258.jpg'
p348
aS'coast/land277.jpg'
p349
aS'coast/land302.jpg'
p350
aS'coast/land309.jpg'
p351
aS'coast/land334.jpg'
p352
aS'coast/land339.jpg'
p353
aS'coast/land341.jpg'
p354
aS'coast/land367.jpg'
p355
aS'coast/land368.jpg'
p356
aS'coast/land369.jpg'
p357
aS'coast/land372.jpg'
p358
aS'coast/land374.jpg'
p359
aS'coast/land480.jpg'
p360
aS'coast/land623.jpg'
p361
aS'coast/land812.jpg'
p362
aS'coast/land897.jpg'
p363
aS'coast/land902.jpg'
p364
aS'coast/land924.jpg'
p365
aS'coast/land946.jpg'
p366
aS'coast/land951.jpg'
p367
aS'coast/land954.jpg'
p368
aS'coast/n122078.jpg'
p369
aS'coast/n18001.jpg'
p370
aS'coast/n199065.jpg'
p371
aS'coast/n199067.jpg'
p372
aS'coast/n203004.jpg'
p373
aS'coast/n203011.jpg'
p374
aS'coast/n203030.jpg'
p375
aS'coast/n203032.jpg'
p376
aS'coast/n203036.jpg'
p377
aS'coast/n203066.jpg'
p378
aS'coast/n203085.jpg'
p379
aS'coast/n228047.jpg'
p380
aS'coast/n228083.jpg'
p381
aS'coast/n228092.jpg'
p382
aS'coast/n238045.jpg'
p383
aS'coast/n241020.jpg'
p384
aS'coast/n243011.jpg'
p385
aS'coast/n243030.jpg'
p386
aS'coast/n243057.jpg'
p387
aS'coast/n243061.jpg'
p388
aS'coast/n243063.jpg'
p389
aS'coast/n286045.jpg'
p390
aS'coast/n291022.jpg'
p391
aS'coast/n291024.jpg'
p392
aS'coast/n291030.jpg'
p393
aS'coast/n291032.jpg'
p394
aS'coast/n291057.jpg'
p395
aS'coast/n291061.jpg'
p396
aS'coast/n291075.jpg'
p397
aS'coast/n291076.jpg'
p398
aS'coast/n295011.jpg'
p399
aS'coast/n295068.jpg'
p400
aS'coast/n295080.jpg'
p401
aS'coast/n328001.jpg'
p402
aS'coast/n347047.jpg'
p403
aS'coast/n384038.jpg'
p404
aS'coast/n384092.jpg'
p405
aS'coast/n384099.jpg'
p406
aS'coast/n424023.jpg'
p407
aS'coast/n424079.jpg'
p408
aS'coast/n446013.jpg'
p409
aS'coast/n486055.jpg'
p410
aS'coast/n672003.jpg'
p411
aS'coast/n672031.jpg'
p412
aS'coast/n672034.jpg'
p413
aS'coast/n672069.jpg'
p414
aS'coast/n708004.jpg'
p415
aS'coast/n735016.jpg'
p416
aS'coast/n736062.jpg'
p417
aS'coast/n739046.jpg'
p418
aS'coast/n739047.jpg'
p419
aS'coast/nat1043.jpg'
p420
aS'coast/nat1052.jpg'
p421
aS'coast/nat1053.jpg'
p422
aS'coast/nat1065.jpg'
p423
aS'coast/nat109.jpg'
p424
aS'coast/nat1091.jpg'
p425
aS'coast/nat1112.jpg'
p426
aS'coast/nat1146.jpg'
p427
aS'coast/nat1149.jpg'
p428
aS'coast/nat1150.jpg'
p429
aS'coast/nat1151.jpg'
p430
aS'coast/nat1175.jpg'
p431
aS'coast/nat1177.jpg'
p432
aS'coast/nat1208.jpg'
p433
aS'coast/nat1265.jpg'
p434
aS'coast/nat167.jpg'
p435
aS'coast/nat172.jpg'
p436
aS'coast/nat194.jpg'
p437
aS'coast/nat283.jpg'
p438
aS'coast/nat285.jpg'
p439
aS'coast/nat288.jpg'
p440
aS'coast/nat292.jpg'
p441
aS'coast/nat293.jpg'
p442
aS'coast/nat294.jpg'
p443
aS'coast/nat462.jpg'
p444
aS'coast/nat479.jpg'
p445
aS'coast/nat482.jpg'
p446
aS'coast/nat491.jpg'
p447
aS'coast/nat496.jpg'
p448
aS'coast/nat566.jpg'
p449
aS'coast/nat602.jpg'
p450
aS'coast/nat639.jpg'
p451
aS'coast/nat643.jpg'
p452
aS'coast/nat667.jpg'
p453
aS'coast/nat700.jpg'
p454
aS'coast/nat707.jpg'
p455
aS'coast/nat711.jpg'
p456
aS'coast/nat739.jpg'
p457
aS'coast/nat743.jpg'
p458
aS'coast/nat745.jpg'
p459
aS'coast/nat755.jpg'
p460
aS'coast/nat768.jpg'
p461
aS'coast/nat810.jpg'
p462
aS'coast/nat820.jpg'
p463
aS'coast/nat865.jpg'
p464
aS'coast/nat866.jpg'
p465
aS'coast/nat890.jpg'
p466
aS'coast/nat893.jpg'
p467
aS'coast/nat895.jpg'
p468
aS'coast/nat897.jpg'
p469
aS'coast/nat899.jpg'
p470
aS'coast/nat900.jpg'
p471
aS'coast/nat905.jpg'
p472
aS'coast/nat907.jpg'
p473
aS'coast/nat910.jpg'
p474
aS'coast/nat956.jpg'
p475
aS'coast/natu130.jpg'
p476
aS'coast/natu25.jpg'
p477
aS'coast/natu399.jpg'
p478
aS'coast/natu408.jpg'
p479
aS'coast/natu468.jpg'
p480
aS'coast/natu469.jpg'
p481
aS'coast/natu604.jpg'
p482
aS'coast/natu641.jpg'
p483
aS'coast/natu642.jpg'
p484
aS'coast/natu643.jpg'
p485
aS'coast/natu649.jpg'
p486
aS'coast/natu666.jpg'
p487
aS'coast/natu667.jpg'
p488
aS'coast/natu670.jpg'
p489
aS'coast/natu702.jpg'
p490
aS'coast/natu704.jpg'
p491
aS'coast/natu718.jpg'
p492
aS'coast/natu795.jpg'
p493
aS'coast/natu798.jpg'
p494
aS'coast/natu804.jpg'
p495
aS'coast/natu811.jpg'
p496
aS'coast/natu817.jpg'
p497
aS'coast/natu820.jpg'
p498
aS'coast/natu822.jpg'
p499
aS'coast/natu824.jpg'
p500
aS'coast/natu826.jpg'
p501
aS'coast/natu830.jpg'
p502
aS'coast/natu887.jpg'
p503
aS'coast/natu901.jpg'
p504
aS'coast/natu908.jpg'
p505
aS'coast/natu912.jpg'
p506
aS'coast/natu919.jpg'
p507
aS'coast/natu923.jpg'
p508
aS'coast/natu938.jpg'
p509
aS'coast/natu975.jpg'
p510
aS'coast/natu981.jpg'
p511
aS'coast/natu986.jpg'
p512
aS'coast/open13.jpg'
p513
aS'coast/open60.jpg'
p514
aS'coast/open62.jpg'
p515
aS'coast/osun51.jpg'
p516
aS'coast/osun52.jpg'
p517
aS'coast/osun54.jpg'
p518
aS'coast/sun1.jpg'
p519
aS'coast/sun14.jpg'
p520
aS'coast/sun16.jpg'
p521
aS'coast/sun21.jpg'
p522
aS'coast/sun22.jpg'
p523
aS'coast/sun27.jpg'
p524
aS'coast/sun28.jpg'
p525
aS'coast/sun3.jpg'
p526
aS'coast/sun31.jpg'
p527
aS'coast/sun32.jpg'
p528
aS'coast/sun39.jpg'
p529
aS'coast/sun4.jpg'
p530
aS'coast/sun42.jpg'
p531
aS'coast/sun44.jpg'
p532
aS'coast/sun45.jpg'
p533
aS'coast/sun56.jpg'
p534
aS'coast/sun57.jpg'
p535
aS'coast/sun59.jpg'
p536
aS'coast/sun8.jpg'
p537
aS'forest/art114.jpg'
p538
aS'forest/bost100.jpg'
p539
aS'forest/bost101.jpg'
p540
aS'forest/bost102.jpg'
p541
aS'forest/bost103.jpg'
p542
aS'forest/cdmc101.jpg'
p543
aS'forest/cdmc12.jpg'
p544
aS'forest/cdmc271.jpg'
p545
aS'forest/cdmc277.jpg'
p546
aS'forest/cdmc280.jpg'
p547
aS'forest/cdmc281.jpg'
p548
aS'forest/cdmc282.jpg'
p549
aS'forest/cdmc283.jpg'
p550
aS'forest/cdmc284.jpg'
p551
aS'forest/cdmc290.jpg'
p552
aS'forest/cdmc291.jpg'
p553
aS'forest/cdmc292.jpg'
p554
aS'forest/cdmc293.jpg'
p555
aS'forest/cdmc313.jpg'
p556
aS'forest/cdmc317.jpg'
p557
aS'forest/cdmc319.jpg'
p558
aS'forest/cdmc331.jpg'
p559
aS'forest/cdmc333.jpg'
p560
aS'forest/cdmc338.jpg'
p561
aS'forest/cdmc344.jpg'
p562
aS'forest/cdmc348.jpg'
p563
aS'forest/cdmc351.jpg'
p564
aS'forest/cdmc352.jpg'
p565
aS'forest/cdmc358.jpg'
p566
aS'forest/cdmc359.jpg'
p567
aS'forest/cdmc368.jpg'
p568
aS'forest/cdmc375.jpg'
p569
aS'forest/cdmc377.jpg'
p570
aS'forest/cdmc385.jpg'
p571
aS'forest/cdmc388.jpg'
p572
aS'forest/cdmc415.jpg'
p573
aS'forest/cdmc430.jpg'
p574
aS'forest/cdmc451.jpg'
p575
aS'forest/cdmc458.jpg'
p576
aS'forest/cdmc507.jpg'
p577
aS'forest/cdmc533.jpg'
p578
aS'forest/cdmc547.jpg'
p579
aS'forest/cdmc556.jpg'
p580
aS'forest/cdmc562.jpg'
p581
aS'forest/for102.jpg'
p582
aS'forest/for105.jpg'
p583
aS'forest/for106.jpg'
p584
aS'forest/for110.jpg'
p585
aS'forest/for112.jpg'
p586
aS'forest/for114.jpg'
p587
aS'forest/for116.jpg'
p588
aS'forest/for119.jpg'
p589
aS'forest/for127.jpg'
p590
aS'forest/for130.jpg'
p591
aS'forest/for132.jpg'
p592
aS'forest/for136.jpg'
p593
aS'forest/for142.jpg'
p594
aS'forest/for146.jpg'
p595
aS'forest/for148.jpg'
p596
aS'forest/for15.jpg'
p597
aS'forest/for151.jpg'
p598
aS'forest/for153.jpg'
p599
aS'forest/for157.jpg'
p600
aS'forest/for17.jpg'
p601
aS'forest/for22.jpg'
p602
aS'forest/for25.jpg'
p603
aS'forest/for28.jpg'
p604
aS'forest/for32.jpg'
p605
aS'forest/for38.jpg'
p606
aS'forest/for44.jpg'
p607
aS'forest/for47.jpg'
p608
aS'forest/for50.jpg'
p609
aS'forest/for52.jpg'
p610
aS'forest/for58.jpg'
p611
aS'forest/for63.jpg'
p612
aS'forest/for65.jpg'
p613
aS'forest/for67.jpg'
p614
aS'forest/for77.jpg'
p615
aS'forest/for78.jpg'
p616
aS'forest/for79.jpg'
p617
aS'forest/for84.jpg'
p618
aS'forest/for85.jpg'
p619
aS'forest/for86.jpg'
p620
aS'forest/for87.jpg'
p621
aS'forest/for93.jpg'
p622
aS'forest/for95.jpg'
p623
aS'forest/for96.jpg'
p624
aS'forest/land107.jpg'
p625
aS'forest/land215.jpg'
p626
aS'forest/land219.jpg'
p627
aS'forest/land243.jpg'
p628
aS'forest/land245.jpg'
p629
aS'forest/land335.jpg'
p630
aS'forest/land376.jpg'
p631
aS'forest/land377.jpg'
p632
aS'forest/land64.jpg'
p633
aS'forest/land726.jpg'
p634
aS'forest/land727.jpg'
p635
aS'forest/land733.jpg'
p636
aS'forest/land801.jpg'
p637
aS'forest/land81.jpg'
p638
aS'forest/land810.jpg'
p639
aS'forest/land849.jpg'
p640
aS'forest/land850.jpg'
p641
aS'forest/land858.jpg'
p642
aS'forest/land861.jpg'
p643
aS'forest/land864.jpg'
p644
aS'forest/land866.jpg'
p645
aS'forest/land869.jpg'
p646
aS'forest/land870.jpg'
p647
aS'forest/land872.jpg'
p648
aS'forest/land873.jpg'
p649
aS'forest/land922.jpg'
p650
aS'forest/moun46.jpg'
p651
aS'forest/nat1027.jpg'
p652
aS'forest/nat1095.jpg'
p653
aS'forest/nat1097.jpg'
p654
aS'forest/nat1128.jpg'
p655
aS'forest/nat1131.jpg'
p656
aS'forest/nat1184.jpg'
p657
aS'forest/nat1217.jpg'
p658
aS'forest/nat1242.jpg'
p659
aS'forest/nat1253.jpg'
p660
aS'forest/nat147.jpg'
p661
aS'forest/nat162.jpg'
p662
aS'forest/nat203.jpg'
p663
aS'forest/nat204.jpg'
p664
aS'forest/nat205.jpg'
p665
aS'forest/nat209.jpg'
p666
aS'forest/nat210.jpg'
p667
aS'forest/nat211.jpg'
p668
aS'forest/nat212.jpg'
p669
aS'forest/nat220.jpg'
p670
aS'forest/nat221.jpg'
p671
aS'forest/nat223.jpg'
p672
aS'forest/nat239.jpg'
p673
aS'forest/nat260.jpg'
p674
aS'forest/nat263.jpg'
p675
aS'forest/nat266.jpg'
p676
aS'forest/nat281.jpg'
p677
aS'forest/nat286.jpg'
p678
aS'forest/nat310.jpg'
p679
aS'forest/nat328.jpg'
p680
aS'forest/nat338.jpg'
p681
aS'forest/nat347.jpg'
p682
aS'forest/nat349.jpg'
p683
aS'forest/nat354.jpg'
p684
aS'forest/nat360.jpg'
p685
aS'forest/nat361.jpg'
p686
aS'forest/nat367.jpg'
p687
aS'forest/nat373.jpg'
p688
aS'forest/nat398.jpg'
p689
aS'forest/nat400.jpg'
p690
aS'forest/nat417.jpg'
p691
aS'forest/nat468.jpg'
p692
aS'forest/nat470.jpg'
p693
aS'forest/nat619.jpg'
p694
aS'forest/nat623.jpg'
p695
aS'forest/nat697.jpg'
p696
aS'forest/nat717.jpg'
p697
aS'forest/nat719.jpg'
p698
aS'forest/nat763.jpg'
p699
aS'forest/nat798.jpg'
p700
aS'forest/nat835.jpg'
p701
aS'forest/nat867.jpg'
p702
aS'forest/natc12.jpg'
p703
aS'forest/natc37.jpg'
p704
aS'forest/natc52.jpg'
p705
aS'forest/natu158.jpg'
p706
aS'forest/natu161.jpg'
p707
aS'forest/natu163.jpg'
p708
aS'forest/natu170.jpg'
p709
aS'forest/natu2.jpg'
p710
aS'forest/natu28.jpg'
p711
aS'forest/natu31.jpg'
p712
aS'forest/natu317.jpg'
p713
aS'forest/natu322.jpg'
p714
aS'forest/natu325.jpg'
p715
aS'forest/natu361.jpg'
p716
aS'forest/natu396.jpg'
p717
aS'forest/natu423.jpg'
p718
aS'forest/natu425.jpg'
p719
aS'forest/natu428.jpg'
p720
aS'forest/natu439.jpg'
p721
aS'forest/natu441.jpg'
p722
aS'forest/natu443.jpg'
p723
aS'forest/natu611.jpg'
p724
aS'forest/natu696.jpg'
p725
aS'forest/natu72.jpg'
p726
aS'forest/natu723.jpg'
p727
aS'forest/natu794.jpg'
p728
aS'forest/natu848.jpg'
p729
aS'forest/natu850.jpg'
p730
aS'forest/natu860.jpg'
p731
aS'forest/natu866.jpg'
p732
aS'forest/natu870.jpg'
p733
aS'forest/natu871.jpg'
p734
aS'forest/natu898.jpg'
p735
aS'forest/natu913.jpg'
p736
aS'forest/natu949.jpg'
p737
aS'forest/natu977.jpg'
p738
aS'forest/sclos13.jpg'
p739
aS'forest/text105.jpg'
p740
aS'forest/text106.jpg'
p741
aS'forest/text107.jpg'
p742
aS'forest/text11.jpg'
p743
aS'forest/text119.jpg'
p744
aS'forest/text122.jpg'
p745
aS'forest/text124.jpg'
p746
aS'forest/text13.jpg'
p747
aS'forest/text20.jpg'
p748
aS'forest/text21.jpg'
p749
aS'forest/text26.jpg'
p750
aS'forest/text28.jpg'
p751
aS'forest/text39.jpg'
p752
aS'forest/text41.jpg'
p753
aS'forest/text43.jpg'
p754
aS'forest/text44.jpg'
p755
aS'forest/text47.jpg'
p756
aS'forest/text48.jpg'
p757
aS'forest/text49.jpg'
p758
aS'forest/text63.jpg'
p759
aS'forest/text75.jpg'
p760
aS'forest/text81.jpg'
p761
aS'forest/text90.jpg'
p762
aS'forest/urb753.jpg'
p763
aS'forest/urb767.jpg'
p764
aS'highway/a866041.jpg'
p765
aS'highway/a866048.jpg'
p766
aS'highway/art1204.jpg'
p767
aS'highway/art1673.jpg'
p768
aS'highway/art1679.jpg'
p769
aS'highway/art1682.jpg'
p770
aS'highway/art237.jpg'
p771
aS'highway/art238.jpg'
p772
aS'highway/art250.jpg'
p773
aS'highway/art254.jpg'
p774
aS'highway/art255.jpg'
p775
aS'highway/art328.jpg'
p776
aS'highway/art336.jpg'
p777
aS'highway/art489.jpg'
p778
aS'highway/art558.jpg'
p779
aS'highway/art563.jpg'
p780
aS'highway/art576.jpg'
p781
aS'highway/art579.jpg'
p782
aS'highway/art580.jpg'
p783
aS'highway/art596.jpg'
p784
aS'highway/art608.jpg'
p785
aS'highway/art773.jpg'
p786
aS'highway/art813.jpg'
p787
aS'highway/art820.jpg'
p788
aS'highway/art874.jpg'
p789
aS'highway/art885.jpg'
p790
aS'highway/art890.jpg'
p791
aS'highway/bost147.jpg'
p792
aS'highway/bost149.jpg'
p793
aS'highway/bost150.jpg'
p794
aS'highway/bost153.jpg'
p795
aS'highway/bost155.jpg'
p796
aS'highway/bost156.jpg'
p797
aS'highway/bost157.jpg'
p798
aS'highway/bost158.jpg'
p799
aS'highway/bost161.jpg'
p800
aS'highway/bost162.jpg'
p801
aS'highway/bost164.jpg'
p802
aS'highway/bost165.jpg'
p803
aS'highway/bost166.jpg'
p804
aS'highway/bost167.jpg'
p805
aS'highway/bost168.jpg'
p806
aS'highway/bost170.jpg'
p807
aS'highway/bost171.jpg'
p808
aS'highway/bost174.jpg'
p809
aS'highway/bost175.jpg'
p810
aS'highway/bost176.jpg'
p811
aS'highway/bost178.jpg'
p812
aS'highway/bost179.jpg'
p813
aS'highway/bost180.jpg'
p814
aS'highway/bost181.jpg'
p815
aS'highway/bost182.jpg'
p816
aS'highway/bost183.jpg'
p817
aS'highway/bost184.jpg'
p818
aS'highway/bost185.jpg'
p819
aS'highway/bost290.jpg'
p820
aS'highway/bost291.jpg'
p821
aS'highway/bost292.jpg'
p822
aS'highway/bost293.jpg'
p823
aS'highway/bost295.jpg'
p824
aS'highway/bost296.jpg'
p825
aS'highway/bost298.jpg'
p826
aS'highway/bost300.jpg'
p827
aS'highway/bost303.jpg'
p828
aS'highway/bost304.jpg'
p829
aS'highway/bost305.jpg'
p830
aS'highway/bost308.jpg'
p831
aS'highway/bost310.jpg'
p832
aS'highway/bost312.jpg'
p833
aS'highway/bost314.jpg'
p834
aS'highway/bost315.jpg'
p835
aS'highway/bost316.jpg'
p836
aS'highway/bost318.jpg'
p837
aS'highway/bost320.jpg'
p838
aS'highway/bost321.jpg'
p839
aS'highway/bost322.jpg'
p840
aS'highway/bost323.jpg'
p841
aS'highway/bost329.jpg'
p842
aS'highway/bost330.jpg'
p843
aS'highway/bost331.jpg'
p844
aS'highway/bost332.jpg'
p845
aS'highway/bost335.jpg'
p846
aS'highway/bost336.jpg'
p847
aS'highway/bost374.jpg'
p848
aS'highway/bost387.jpg'
p849
aS'highway/bost392.jpg'
p850
aS'highway/bost393.jpg'
p851
aS'highway/bost395.jpg'
p852
aS'highway/bost397.jpg'
p853
aS'highway/bost398.jpg'
p854
aS'highway/bost402.jpg'
p855
aS'highway/bost403.jpg'
p856
aS'highway/gre125.jpg'
p857
aS'highway/gre141.jpg'
p858
aS'highway/gre144.jpg'
p859
aS'highway/gre147.jpg'
p860
aS'highway/gre149.jpg'
p861
aS'highway/gre153.jpg'
p862
aS'highway/gre155.jpg'
p863
aS'highway/gre239.jpg'
p864
aS'highway/gre275.jpg'
p865
aS'highway/gre279.jpg'
p866
aS'highway/gre35.jpg'
p867
aS'highway/gre37.jpg'
p868
aS'highway/gre40.jpg'
p869
aS'highway/gre400.jpg'
p870
aS'highway/gre402.jpg'
p871
aS'highway/gre403.jpg'
p872
aS'highway/gre404.jpg'
p873
aS'highway/gre406.jpg'
p874
aS'highway/gre409.jpg'
p875
aS'highway/gre410.jpg'
p876
aS'highway/gre413.jpg'
p877
aS'highway/gre415.jpg'
p878
aS'highway/gre426.jpg'
p879
aS'highway/gre459.jpg'
p880
aS'highway/gre46.jpg'
p881
aS'highway/gre466.jpg'
p882
aS'highway/gre467.jpg'
p883
aS'highway/gre470.jpg'
p884
aS'highway/gre472.jpg'
p885
aS'highway/gre474.jpg'
p886
aS'highway/gre476.jpg'
p887
aS'highway/gre479.jpg'
p888
aS'highway/gre48.jpg'
p889
aS'highway/gre480.jpg'
p890
aS'highway/gre481.jpg'
p891
aS'highway/gre484.jpg'
p892
aS'highway/gre491.jpg'
p893
aS'highway/gre493.jpg'
p894
aS'highway/gre50.jpg'
p895
aS'highway/gre504.jpg'
p896
aS'highway/gre52.jpg'
p897
aS'highway/gre525.jpg'
p898
aS'highway/gre53.jpg'
p899
aS'highway/gre530.jpg'
p900
aS'highway/gre533.jpg'
p901
aS'highway/gre536.jpg'
p902
aS'highway/gre537.jpg'
p903
aS'highway/gre538.jpg'
p904
aS'highway/gre58.jpg'
p905
aS'highway/gre610.jpg'
p906
aS'highway/gre644.jpg'
p907
aS'highway/gre645.jpg'
p908
aS'highway/gre646.jpg'
p909
aS'highway/gre650.jpg'
p910
aS'highway/gre651.jpg'
p911
aS'highway/gre656.jpg'
p912
aS'highway/gre657.jpg'
p913
aS'highway/gre658.jpg'
p914
aS'highway/gre661.jpg'
p915
aS'highway/gre662.jpg'
p916
aS'highway/gre678.jpg'
p917
aS'highway/gre683.jpg'
p918
aS'highway/gre684.jpg'
p919
aS'highway/gre685.jpg'
p920
aS'highway/land409.jpg'
p921
aS'highway/land463.jpg'
p922
aS'highway/land464.jpg'
p923
aS'highway/n480001.jpg'
p924
aS'highway/n480020.jpg'
p925
aS'highway/n480023.jpg'
p926
aS'highway/n480045.jpg'
p927
aS'highway/nat518.jpg'
p928
aS'highway/nat526.jpg'
p929
aS'highway/nat542.jpg'
p930
aS'highway/nat543.jpg'
p931
aS'highway/nat546.jpg'
p932
aS'highway/nat550.jpg'
p933
aS'highway/natu778.jpg'
p934
aS'highway/natu787.jpg'
p935
aS'highway/par23.jpg'
p936
aS'highway/urb471.jpg'
p937
aS'highway/urb537.jpg'
p938
aS'highway/urb545.jpg'
p939
aS'highway/urb681.jpg'
p940
aS'highway/urb710.jpg'
p941
aS'highway/urb714.jpg'
p942
aS'highway/urb715.jpg'
p943
aS'highway/urb716.jpg'
p944
aS'highway/urb720.jpg'
p945
aS'highway/urb743.jpg'
p946
aS'highway/urb744.jpg'
p947
aS'highway/urb754.jpg'
p948
aS'inside_city/a111017.jpg'
p949
aS'inside_city/a129035.jpg'
p950
aS'inside_city/a129048.jpg'
p951
aS'inside_city/a140032.jpg'
p952
aS'inside_city/a212024.jpg'
p953
aS'inside_city/a212025.jpg'
p954
aS'inside_city/a212052.jpg'
p955
aS'inside_city/a248032.jpg'
p956
aS'inside_city/a248045.jpg'
p957
aS'inside_city/a379017.jpg'
p958
aS'inside_city/a385019.jpg'
p959
aS'inside_city/a385073.jpg'
p960
aS'inside_city/a385075.jpg'
p961
aS'inside_city/a462055.jpg'
p962
aS'inside_city/a463024.jpg'
p963
aS'inside_city/a463092.jpg'
p964
aS'inside_city/a48009.jpg'
p965
aS'inside_city/a487026.jpg'
p966
aS'inside_city/a632023.jpg'
p967
aS'inside_city/a683031.jpg'
p968
aS'inside_city/a79054.jpg'
p969
aS'inside_city/a804060.jpg'
p970
aS'inside_city/a805046.jpg'
p971
aS'inside_city/a805082.jpg'
p972
aS'inside_city/a805091.jpg'
p973
aS'inside_city/a807036.jpg'
p974
aS'inside_city/a807066.jpg'
p975
aS'inside_city/a808091.jpg'
p976
aS'inside_city/a855084.jpg'
p977
aS'inside_city/art1037.jpg'
p978
aS'inside_city/art1039.jpg'
p979
aS'inside_city/art104.jpg'
p980
aS'inside_city/art1058.jpg'
p981
aS'inside_city/art1102.jpg'
p982
aS'inside_city/art1110.jpg'
p983
aS'inside_city/art1117.jpg'
p984
aS'inside_city/art1125.jpg'
p985
aS'inside_city/art1135.jpg'
p986
aS'inside_city/art1161.jpg'
p987
aS'inside_city/art1165.jpg'
p988
aS'inside_city/art1167.jpg'
p989
aS'inside_city/art1231.jpg'
p990
aS'inside_city/art1258.jpg'
p991
aS'inside_city/art1269.jpg'
p992
aS'inside_city/art1277.jpg'
p993
aS'inside_city/art1363.jpg'
p994
aS'inside_city/art1366.jpg'
p995
aS'inside_city/art1443.jpg'
p996
aS'inside_city/art1486.jpg'
p997
aS'inside_city/art1496.jpg'
p998
aS'inside_city/art1586.jpg'
p999
aS'inside_city/art1594.jpg'
p1000
aS'inside_city/art1597.jpg'
p1001
aS'inside_city/art1598.jpg'
p1002
aS'inside_city/art1604.jpg'
p1003
aS'inside_city/art1633.jpg'
p1004
aS'inside_city/art165.jpg'
p1005
aS'inside_city/art1651.jpg'
p1006
aS'inside_city/art1664.jpg'
p1007
aS'inside_city/art1677.jpg'
p1008
aS'inside_city/art1678.jpg'
p1009
aS'inside_city/art20.jpg'
p1010
aS'inside_city/art30.jpg'
p1011
aS'inside_city/art50.jpg'
p1012
aS'inside_city/art545.jpg'
p1013
aS'inside_city/art551.jpg'
p1014
aS'inside_city/art569.jpg'
p1015
aS'inside_city/art622.jpg'
p1016
aS'inside_city/art637.jpg'
p1017
aS'inside_city/art641.jpg'
p1018
aS'inside_city/art643.jpg'
p1019
aS'inside_city/art644.jpg'
p1020
aS'inside_city/art646.jpg'
p1021
aS'inside_city/art654.jpg'
p1022
aS'inside_city/art656.jpg'
p1023
aS'inside_city/art659.jpg'
p1024
aS'inside_city/art661.jpg'
p1025
aS'inside_city/art666.jpg'
p1026
aS'inside_city/art669.jpg'
p1027
aS'inside_city/art673.jpg'
p1028
aS'inside_city/art676.jpg'
p1029
aS'inside_city/art681.jpg'
p1030
aS'inside_city/art692.jpg'
p1031
aS'inside_city/art695.jpg'
p1032
aS'inside_city/art700.jpg'
p1033
aS'inside_city/art727.jpg'
p1034
aS'inside_city/art735.jpg'
p1035
aS'inside_city/art738.jpg'
p1036
aS'inside_city/art770.jpg'
p1037
aS'inside_city/art785.jpg'
p1038
aS'inside_city/art787.jpg'
p1039
aS'inside_city/art795.jpg'
p1040
aS'inside_city/art819.jpg'
p1041
aS'inside_city/art827.jpg'
p1042
aS'inside_city/art871.jpg'
p1043
aS'inside_city/art892.jpg'
p1044
aS'inside_city/art901.jpg'
p1045
aS'inside_city/art903.jpg'
p1046
aS'inside_city/art904.jpg'
p1047
aS'inside_city/art920.jpg'
p1048
aS'inside_city/art922.jpg'
p1049
aS'inside_city/art942.jpg'
p1050
aS'inside_city/bost109.jpg'
p1051
aS'inside_city/bost141.jpg'
p1052
aS'inside_city/bost191.jpg'
p1053
aS'inside_city/bost29.jpg'
p1054
aS'inside_city/bost42.jpg'
p1055
aS'inside_city/bost55.jpg'
p1056
aS'inside_city/bost79.jpg'
p1057
aS'inside_city/bost85.jpg'
p1058
aS'inside_city/boston232.jpg'
p1059
aS'inside_city/boston245.jpg'
p1060
aS'inside_city/boston247.jpg'
p1061
aS'inside_city/boston29.jpg'
p1062
aS'inside_city/boston340.jpg'
p1063
aS'inside_city/boston361.jpg'
p1064
aS'inside_city/boston383.jpg'
p1065
aS'inside_city/boston80.jpg'
p1066
aS'inside_city/boston92.jpg'
p1067
aS'inside_city/city21.jpg'
p1068
aS'inside_city/city84.jpg'
p1069
aS'inside_city/enc3.jpg'
p1070
aS'inside_city/gre102.jpg'
p1071
aS'inside_city/gre19.jpg'
p1072
aS'inside_city/gre197.jpg'
p1073
aS'inside_city/gre249.jpg'
p1074
aS'inside_city/gre262.jpg'
p1075
aS'inside_city/gre270.jpg'
p1076
aS'inside_city/gre286.jpg'
p1077
aS'inside_city/gre290.jpg'
p1078
aS'inside_city/gre303.jpg'
p1079
aS'inside_city/gre304.jpg'
p1080
aS'inside_city/gre314.jpg'
p1081
aS'inside_city/gre446.jpg'
p1082
aS'inside_city/gre511.jpg'
p1083
aS'inside_city/gre641.jpg'
p1084
aS'inside_city/gre9.jpg'
p1085
aS'inside_city/gre94.jpg'
p1086
aS'inside_city/gre98.jpg'
p1087
aS'inside_city/hous106.jpg'
p1088
aS'inside_city/hous109.jpg'
p1089
aS'inside_city/hous114.jpg'
p1090
aS'inside_city/hous120.jpg'
p1091
aS'inside_city/hous121.jpg'
p1092
aS'inside_city/hous126.jpg'
p1093
aS'inside_city/hous13.jpg'
p1094
aS'inside_city/hous130.jpg'
p1095
aS'inside_city/hous14.jpg'
p1096
aS'inside_city/hous15.jpg'
p1097
aS'inside_city/hous18.jpg'
p1098
aS'inside_city/hous19.jpg'
p1099
aS'inside_city/hous22.jpg'
p1100
aS'inside_city/hous35.jpg'
p1101
aS'inside_city/hous36.jpg'
p1102
aS'inside_city/hous39.jpg'
p1103
aS'inside_city/hous40.jpg'
p1104
aS'inside_city/hous50.jpg'
p1105
aS'inside_city/hous52.jpg'
p1106
aS'inside_city/hous60.jpg'
p1107
aS'inside_city/hous64.jpg'
p1108
aS'inside_city/hous68.jpg'
p1109
aS'inside_city/hous71.jpg'
p1110
aS'inside_city/hous77.jpg'
p1111
aS'inside_city/hous79.jpg'
p1112
aS'inside_city/hous83.jpg'
p1113
aS'inside_city/hous85.jpg'
p1114
aS'inside_city/hous87.jpg'
p1115
aS'inside_city/hous93.jpg'
p1116
aS'inside_city/par128.jpg'
p1117
aS'inside_city/par129.jpg'
p1118
aS'inside_city/par136.jpg'
p1119
aS'inside_city/par139.jpg'
p1120
aS'inside_city/par173.jpg'
p1121
aS'inside_city/par181.jpg'
p1122
aS'inside_city/par186.jpg'
p1123
aS'inside_city/par194.jpg'
p1124
aS'inside_city/urb108.jpg'
p1125
aS'inside_city/urb114.jpg'
p1126
aS'inside_city/urb121.jpg'
p1127
aS'inside_city/urb123.jpg'
p1128
aS'inside_city/urb130.jpg'
p1129
aS'inside_city/urb224.jpg'
p1130
aS'inside_city/urb245.jpg'
p1131
aS'inside_city/urb267.jpg'
p1132
aS'inside_city/urb279.jpg'
p1133
aS'inside_city/urb307.jpg'
p1134
aS'inside_city/urb308.jpg'
p1135
aS'inside_city/urb321.jpg'
p1136
aS'inside_city/urb322.jpg'
p1137
aS'inside_city/urb323.jpg'
p1138
aS'inside_city/urb354.jpg'
p1139
aS'inside_city/urb359.jpg'
p1140
aS'inside_city/urb362.jpg'
p1141
aS'inside_city/urb449.jpg'
p1142
aS'inside_city/urb454.jpg'
p1143
aS'inside_city/urb464.jpg'
p1144
aS'inside_city/urb487.jpg'
p1145
aS'inside_city/urb494.jpg'
p1146
aS'inside_city/urb515.jpg'
p1147
aS'inside_city/urb584.jpg'
p1148
aS'inside_city/urb612.jpg'
p1149
aS'inside_city/urb648.jpg'
p1150
aS'inside_city/urb656.jpg'
p1151
aS'inside_city/urb680.jpg'
p1152
aS'inside_city/urb701.jpg'
p1153
aS'inside_city/urb721.jpg'
p1154
aS'inside_city/urb738.jpg'
p1155
aS'inside_city/urb801.jpg'
p1156
aS'inside_city/urb970.jpg'
p1157
aS'inside_city/urb972.jpg'
p1158
aS'inside_city/urb981.jpg'
p1159
aS'inside_city/urb991.jpg'
p1160
aS'inside_city/urb992.jpg'
p1161
aS'inside_city/urban1068.jpg'
p1162
aS'mountain/art1132.jpg'
p1163
aS'mountain/cdmc181.jpg'
p1164
aS'mountain/cdmc184.jpg'
p1165
aS'mountain/gre242.jpg'
p1166
aS'mountain/land10.jpg'
p1167
aS'mountain/land11.jpg'
p1168
aS'mountain/land130.jpg'
p1169
aS'mountain/land131.jpg'
p1170
aS'mountain/land132.jpg'
p1171
aS'mountain/land143.jpg'
p1172
aS'mountain/land150.jpg'
p1173
aS'mountain/land153.jpg'
p1174
aS'mountain/land16.jpg'
p1175
aS'mountain/land161.jpg'
p1176
aS'mountain/land172.jpg'
p1177
aS'mountain/land179.jpg'
p1178
aS'mountain/land18.jpg'
p1179
aS'mountain/land188.jpg'
p1180
aS'mountain/land189.jpg'
p1181
aS'mountain/land197.jpg'
p1182
aS'mountain/land201.jpg'
p1183
aS'mountain/land22.jpg'
p1184
aS'mountain/land223.jpg'
p1185
aS'mountain/land225.jpg'
p1186
aS'mountain/land26.jpg'
p1187
aS'mountain/land27.jpg'
p1188
aS'mountain/land275.jpg'
p1189
aS'mountain/land278.jpg'
p1190
aS'mountain/land280.jpg'
p1191
aS'mountain/land286.jpg'
p1192
aS'mountain/land315.jpg'
p1193
aS'mountain/land318.jpg'
p1194
aS'mountain/land319.jpg'
p1195
aS'mountain/land331.jpg'
p1196
aS'mountain/land387.jpg'
p1197
aS'mountain/land4.jpg'
p1198
aS'mountain/land465.jpg'
p1199
aS'mountain/land471.jpg'
p1200
aS'mountain/land475.jpg'
p1201
aS'mountain/land479.jpg'
p1202
aS'mountain/land6.jpg'
p1203
aS'mountain/land680.jpg'
p1204
aS'mountain/land716.jpg'
p1205
aS'mountain/land763.jpg'
p1206
aS'mountain/land775.jpg'
p1207
aS'mountain/land778.jpg'
p1208
aS'mountain/land879.jpg'
p1209
aS'mountain/land880.jpg'
p1210
aS'mountain/land886.jpg'
p1211
aS'mountain/moun10.jpg'
p1212
aS'mountain/moun13.jpg'
p1213
aS'mountain/moun14.jpg'
p1214
aS'mountain/moun27.jpg'
p1215
aS'mountain/moun32.jpg'
p1216
aS'mountain/moun37.jpg'
p1217
aS'mountain/moun38.jpg'
p1218
aS'mountain/moun41.jpg'
p1219
aS'mountain/moun44.jpg'
p1220
aS'mountain/n18009.jpg'
p1221
aS'mountain/n18019.jpg'
p1222
aS'mountain/n18021.jpg'
p1223
aS'mountain/n18022.jpg'
p1224
aS'mountain/n18023.jpg'
p1225
aS'mountain/n18028.jpg'
p1226
aS'mountain/n18036.jpg'
p1227
aS'mountain/n18039.jpg'
p1228
aS'mountain/n18044.jpg'
p1229
aS'mountain/n18070.jpg'
p1230
aS'mountain/n18071.jpg'
p1231
aS'mountain/n199015.jpg'
p1232
aS'mountain/n199031.jpg'
p1233
aS'mountain/n199073.jpg'
p1234
aS'mountain/n199075.jpg'
p1235
aS'mountain/n199080.jpg'
p1236
aS'mountain/n199089.jpg'
p1237
aS'mountain/n213005.jpg'
p1238
aS'mountain/n213009.jpg'
p1239
aS'mountain/n213021.jpg'
p1240
aS'mountain/n213031.jpg'
p1241
aS'mountain/n213041.jpg'
p1242
aS'mountain/n213048.jpg'
p1243
aS'mountain/n213049.jpg'
p1244
aS'mountain/n213053.jpg'
p1245
aS'mountain/n213056.jpg'
p1246
aS'mountain/n213080.jpg'
p1247
aS'mountain/n213081.jpg'
p1248
aS'mountain/n213085.jpg'
p1249
aS'mountain/n213086.jpg'
p1250
aS'mountain/n213092.jpg'
p1251
aS'mountain/n213093.jpg'
p1252
aS'mountain/n213094.jpg'
p1253
aS'mountain/n213097.jpg'
p1254
aS'mountain/n213098.jpg'
p1255
aS'mountain/n219006.jpg'
p1256
aS'mountain/n219007.jpg'
p1257
aS'mountain/n219008.jpg'
p1258
aS'mountain/n219015.jpg'
p1259
aS'mountain/n255068.jpg'
p1260
aS'mountain/n266017.jpg'
p1261
aS'mountain/n266018.jpg'
p1262
aS'mountain/n266020.jpg'
p1263
aS'mountain/n295018.jpg'
p1264
aS'mountain/n295039.jpg'
p1265
aS'mountain/n295082.jpg'
p1266
aS'mountain/n344028.jpg'
p1267
aS'mountain/n344042.jpg'
p1268
aS'mountain/n344047.jpg'
p1269
aS'mountain/n344053.jpg'
p1270
aS'mountain/n344059.jpg'
p1271
aS'mountain/n344076.jpg'
p1272
aS'mountain/n347049.jpg'
p1273
aS'mountain/n347051.jpg'
p1274
aS'mountain/n371066.jpg'
p1275
aS'mountain/n371071.jpg'
p1276
aS'mountain/n371076.jpg'
p1277
aS'mountain/n392087.jpg'
p1278
aS'mountain/n405023.jpg'
p1279
aS'mountain/n44001.jpg'
p1280
aS'mountain/n44002.jpg'
p1281
aS'mountain/n44003.jpg'
p1282
aS'mountain/n44004.jpg'
p1283
aS'mountain/n44031.jpg'
p1284
aS'mountain/n44062.jpg'
p1285
aS'mountain/n480098.jpg'
p1286
aS'mountain/n531080.jpg'
p1287
aS'mountain/n603007.jpg'
p1288
aS'mountain/n603032.jpg'
p1289
aS'mountain/n603040.jpg'
p1290
aS'mountain/n603048.jpg'
p1291
aS'mountain/n632073.jpg'
p1292
aS'mountain/n736011.jpg'
p1293
aS'mountain/n736023.jpg'
p1294
aS'mountain/n736029.jpg'
p1295
aS'mountain/n737027.jpg'
p1296
aS'mountain/n737041.jpg'
p1297
aS'mountain/n737049.jpg'
p1298
aS'mountain/n738013.jpg'
p1299
aS'mountain/n841058.jpg'
p1300
aS'mountain/n841059.jpg'
p1301
aS'mountain/n841060.jpg'
p1302
aS'mountain/n860061.jpg'
p1303
aS'mountain/nat1008.jpg'
p1304
aS'mountain/nat1046.jpg'
p1305
aS'mountain/nat1062.jpg'
p1306
aS'mountain/nat1084.jpg'
p1307
aS'mountain/nat1093.jpg'
p1308
aS'mountain/nat1114.jpg'
p1309
aS'mountain/nat1135.jpg'
p1310
aS'mountain/nat1136.jpg'
p1311
aS'mountain/nat1142.jpg'
p1312
aS'mountain/nat116.jpg'
p1313
aS'mountain/nat1207.jpg'
p1314
aS'mountain/nat1231.jpg'
p1315
aS'mountain/nat1234.jpg'
p1316
aS'mountain/nat14.jpg'
p1317
aS'mountain/nat17.jpg'
p1318
aS'mountain/nat199.jpg'
p1319
aS'mountain/nat25.jpg'
p1320
aS'mountain/nat29.jpg'
p1321
aS'mountain/nat30.jpg'
p1322
aS'mountain/nat316.jpg'
p1323
aS'mountain/nat340.jpg'
p1324
aS'mountain/nat346.jpg'
p1325
aS'mountain/nat36.jpg'
p1326
aS'mountain/nat37.jpg'
p1327
aS'mountain/nat38.jpg'
p1328
aS'mountain/nat391.jpg'
p1329
aS'mountain/nat409.jpg'
p1330
aS'mountain/nat42.jpg'
p1331
aS'mountain/nat426.jpg'
p1332
aS'mountain/nat427.jpg'
p1333
aS'mountain/nat43.jpg'
p1334
aS'mountain/nat433.jpg'
p1335
aS'mountain/nat481.jpg'
p1336
aS'mountain/nat49.jpg'
p1337
aS'mountain/nat494.jpg'
p1338
aS'mountain/nat51.jpg'
p1339
aS'mountain/nat53.jpg'
p1340
aS'mountain/nat54.jpg'
p1341
aS'mountain/nat55.jpg'
p1342
aS'mountain/nat57.jpg'
p1343
aS'mountain/nat67.jpg'
p1344
aS'mountain/nat681.jpg'
p1345
aS'mountain/nat682.jpg'
p1346
aS'mountain/nat686.jpg'
p1347
aS'mountain/nat73.jpg'
p1348
aS'mountain/nat74.jpg'
p1349
aS'mountain/nat752.jpg'
p1350
aS'mountain/nat758.jpg'
p1351
aS'mountain/nat760.jpg'
p1352
aS'mountain/nat77.jpg'
p1353
aS'mountain/nat78.jpg'
p1354
aS'mountain/nat783.jpg'
p1355
aS'mountain/nat80.jpg'
p1356
aS'mountain/nat801.jpg'
p1357
aS'mountain/nat826.jpg'
p1358
aS'mountain/nat88.jpg'
p1359
aS'mountain/nat891.jpg'
p1360
aS'mountain/nat93.jpg'
p1361
aS'mountain/natu102.jpg'
p1362
aS'mountain/natu457.jpg'
p1363
aS'mountain/natu458.jpg'
p1364
aS'mountain/natu461.jpg'
p1365
aS'mountain/natu466.jpg'
p1366
aS'mountain/natu474.jpg'
p1367
aS'mountain/natu568.jpg'
p1368
aS'mountain/natu655.jpg'
p1369
aS'mountain/natu697.jpg'
p1370
aS'mountain/natu699.jpg'
p1371
aS'mountain/natu742.jpg'
p1372
aS'mountain/natu749.jpg'
p1373
aS'mountain/natu750.jpg'
p1374
aS'mountain/natu756.jpg'
p1375
aS'mountain/natu763.jpg'
p1376
aS'mountain/natu783.jpg'
p1377
aS'mountain/natu875.jpg'
p1378
aS'mountain/natu894.jpg'
p1379
aS'mountain/natu974.jpg'
p1380
aS'mountain/sclos4.jpg'
p1381
aS'mountain/sharp11.jpg'
p1382
aS'mountain/sharp16.jpg'
p1383
aS'mountain/sharp18.jpg'
p1384
aS'mountain/sharp19.jpg'
p1385
aS'mountain/sharp22.jpg'
p1386
aS'mountain/sharp27.jpg'
p1387
aS'mountain/sharp29.jpg'
p1388
aS'mountain/sharp30.jpg'
p1389
aS'mountain/sharp32.jpg'
p1390
aS'mountain/sharp33.jpg'
p1391
aS'mountain/sharp34.jpg'
p1392
aS'mountain/sharp38.jpg'
p1393
aS'mountain/sharp40.jpg'
p1394
aS'mountain/sharp41.jpg'
p1395
aS'mountain/sharp42.jpg'
p1396
aS'mountain/sharp43.jpg'
p1397
aS'mountain/sharp44.jpg'
p1398
aS'mountain/sharp46.jpg'
p1399
aS'mountain/sharp47.jpg'
p1400
aS'mountain/sharp5.jpg'
p1401
aS'mountain/sharp52.jpg'
p1402
aS'mountain/sharp53.jpg'
p1403
aS'mountain/sharp54.jpg'
p1404
aS'mountain/sharp59.jpg'
p1405
aS'mountain/sharp66.jpg'
p1406
aS'mountain/sharp67.jpg'
p1407
aS'mountain/sharp68.jpg'
p1408
aS'mountain/sharp69.jpg'
p1409
aS'mountain/sharp71.jpg'
p1410
aS'mountain/sharp72.jpg'
p1411
aS'mountain/sharp73.jpg'
p1412
aS'mountain/sharp74.jpg'
p1413
aS'mountain/sharp78.jpg'
p1414
aS'mountain/sharp91.jpg'
p1415
aS'mountain/sharp96.jpg'
p1416
aS'mountain/sharp98.jpg'
p1417
aS'mountain/ski24.jpg'
p1418
aS'mountain/ski57.jpg'
p1419
aS'mountain/ski65.jpg'
p1420
aS'mountain/ski69.jpg'
p1421
aS'mountain/sopen16.jpg'
p1422
aS'street/a205062.jpg'
p1423
aS'street/a232022.jpg'
p1424
aS'street/a281067.jpg'
p1425
aS'street/a714064.jpg'
p1426
aS'street/a79094.jpg'
p1427
aS'street/art1030.jpg'
p1428
aS'street/art1041.jpg'
p1429
aS'street/art1162.jpg'
p1430
aS'street/art1187.jpg'
p1431
aS'street/art1199.jpg'
p1432
aS'street/art1206.jpg'
p1433
aS'street/art1328.jpg'
p1434
aS'street/art1583.jpg'
p1435
aS'street/art1686.jpg'
p1436
aS'street/art1688.jpg'
p1437
aS'street/art256.jpg'
p1438
aS'street/art511.jpg'
p1439
aS'street/art546.jpg'
p1440
aS'street/art549.jpg'
p1441
aS'street/art757.jpg'
p1442
aS'street/art760.jpg'
p1443
aS'street/art761.jpg'
p1444
aS'street/art762.jpg'
p1445
aS'street/art764.jpg'
p1446
aS'street/art766.jpg'
p1447
aS'street/art767.jpg'
p1448
aS'street/art768.jpg'
p1449
aS'street/art775.jpg'
p1450
aS'street/art793.jpg'
p1451
aS'street/art798.jpg'
p1452
aS'street/art838.jpg'
p1453
aS'street/art862.jpg'
p1454
aS'street/art869.jpg'
p1455
aS'street/art923.jpg'
p1456
aS'street/art970.jpg'
p1457
aS'street/art976.jpg'
p1458
aS'street/artc27.jpg'
p1459
aS'street/bost104.jpg'
p1460
aS'street/bost105.jpg'
p1461
aS'street/bost121.jpg'
p1462
aS'street/bost136.jpg'
p1463
aS'street/bost137.jpg'
p1464
aS'street/bost45.jpg'
p1465
aS'street/bost46.jpg'
p1466
aS'street/bost50.jpg'
p1467
aS'street/bost60.jpg'
p1468
aS'street/bost65.jpg'
p1469
aS'street/bost72.jpg'
p1470
aS'street/bost75.jpg'
p1471
aS'street/bost76.jpg'
p1472
aS'street/bost77.jpg'
p1473
aS'street/bost81.jpg'
p1474
aS'street/bost82.jpg'
p1475
aS'street/boston19.jpg'
p1476
aS'street/boston21.jpg'
p1477
aS'street/boston235.jpg'
p1478
aS'street/boston241.jpg'
p1479
aS'street/boston263.jpg'
p1480
aS'street/boston272.jpg'
p1481
aS'street/boston274.jpg'
p1482
aS'street/boston286.jpg'
p1483
aS'street/boston289.jpg'
p1484
aS'street/boston306.jpg'
p1485
aS'street/boston339.jpg'
p1486
aS'street/boston345.jpg'
p1487
aS'street/boston351.jpg'
p1488
aS'street/boston353.jpg'
p1489
aS'street/boston356.jpg'
p1490
aS'street/boston378.jpg'
p1491
aS'street/boston379.jpg'
p1492
aS'street/boston396.jpg'
p1493
aS'street/boston61.jpg'
p1494
aS'street/boston79.jpg'
p1495
aS'street/city42.jpg'
p1496
aS'street/city91.jpg'
p1497
aS'street/enc15.jpg'
p1498
aS'street/enc48.jpg'
p1499
aS'street/gre11.jpg'
p1500
aS'street/gre114.jpg'
p1501
aS'street/gre115.jpg'
p1502
aS'street/gre116.jpg'
p1503
aS'street/gre121.jpg'
p1504
aS'street/gre124.jpg'
p1505
aS'street/gre128.jpg'
p1506
aS'street/gre130.jpg'
p1507
aS'street/gre159.jpg'
p1508
aS'street/gre160.jpg'
p1509
aS'street/gre179.jpg'
p1510
aS'street/gre186.jpg'
p1511
aS'street/gre189.jpg'
p1512
aS'street/gre191.jpg'
p1513
aS'street/gre2.jpg'
p1514
aS'street/gre209.jpg'
p1515
aS'street/gre214.jpg'
p1516
aS'street/gre219.jpg'
p1517
aS'street/gre251.jpg'
p1518
aS'street/gre27.jpg'
p1519
aS'street/gre295.jpg'
p1520
aS'street/gre600.jpg'
p1521
aS'street/gre653.jpg'
p1522
aS'street/gre76.jpg'
p1523
aS'street/gre86.jpg'
p1524
aS'street/gre91.jpg'
p1525
aS'street/gre95.jpg'
p1526
aS'street/hexp12.jpg'
p1527
aS'street/hexp21.jpg'
p1528
aS'street/hexp22.jpg'
p1529
aS'street/hexp28.jpg'
p1530
aS'street/hexp29.jpg'
p1531
aS'street/hexp3.jpg'
p1532
aS'street/hexp30.jpg'
p1533
aS'street/land767.jpg'
p1534
aS'street/par100.jpg'
p1535
aS'street/par101.jpg'
p1536
aS'street/par102.jpg'
p1537
aS'street/par103.jpg'
p1538
aS'street/par107.jpg'
p1539
aS'street/par112.jpg'
p1540
aS'street/par113.jpg'
p1541
aS'street/par116.jpg'
p1542
aS'street/par118.jpg'
p1543
aS'street/par119.jpg'
p1544
aS'street/par12.jpg'
p1545
aS'street/par123.jpg'
p1546
aS'street/par125.jpg'
p1547
aS'street/par134.jpg'
p1548
aS'street/par14.jpg'
p1549
aS'street/par140.jpg'
p1550
aS'street/par141.jpg'
p1551
aS'street/par146.jpg'
p1552
aS'street/par151.jpg'
p1553
aS'street/par152.jpg'
p1554
aS'street/par154.jpg'
p1555
aS'street/par156.jpg'
p1556
aS'street/par158.jpg'
p1557
aS'street/par16.jpg'
p1558
aS'street/par160.jpg'
p1559
aS'street/par162.jpg'
p1560
aS'street/par165.jpg'
p1561
aS'street/par169.jpg'
p1562
aS'street/par177.jpg'
p1563
aS'street/par178.jpg'
p1564
aS'street/par185.jpg'
p1565
aS'street/par188.jpg'
p1566
aS'street/par192.jpg'
p1567
aS'street/par197.jpg'
p1568
aS'street/par198.jpg'
p1569
aS'street/par199.jpg'
p1570
aS'street/par203.jpg'
p1571
aS'street/par22.jpg'
p1572
aS'street/par28.jpg'
p1573
aS'street/par29.jpg'
p1574
aS'street/par3.jpg'
p1575
aS'street/par36.jpg'
p1576
aS'street/par5.jpg'
p1577
aS'street/par52.jpg'
p1578
aS'street/par54.jpg'
p1579
aS'street/par59.jpg'
p1580
aS'street/par64.jpg'
p1581
aS'street/par72.jpg'
p1582
aS'street/par74.jpg'
p1583
aS'street/par77.jpg'
p1584
aS'street/par78.jpg'
p1585
aS'street/par79.jpg'
p1586
aS'street/par80.jpg'
p1587
aS'street/par81.jpg'
p1588
aS'street/par83.jpg'
p1589
aS'street/par84.jpg'
p1590
aS'street/par85.jpg'
p1591
aS'street/par87.jpg'
p1592
aS'street/par88.jpg'
p1593
aS'street/par9.jpg'
p1594
aS'street/par90.jpg'
p1595
aS'street/par91.jpg'
p1596
aS'street/par93.jpg'
p1597
aS'street/par94.jpg'
p1598
aS'street/par97.jpg'
p1599
aS'street/street110.jpg'
p1600
aS'street/street22.jpg'
p1601
aS'street/street3.jpg'
p1602
aS'street/street47.jpg'
p1603
aS'street/street56.jpg'
p1604
aS'street/street59.jpg'
p1605
aS'street/street61.jpg'
p1606
aS'street/street62.jpg'
p1607
aS'street/street85.jpg'
p1608
aS'street/street94.jpg'
p1609
aS'street/street98.jpg'
p1610
aS'street/urb228.jpg'
p1611
aS'street/urb244.jpg'
p1612
aS'street/urb304.jpg'
p1613
aS'street/urb305.jpg'
p1614
aS'street/urb382.jpg'
p1615
aS'street/urb506.jpg'
p1616
aS'street/urb510.jpg'
p1617
aS'street/urb521.jpg'
p1618
aS'street/urb562.jpg'
p1619
aS'street/urb589.jpg'
p1620
aS'street/urb661.jpg'
p1621
aS'street/urb722.jpg'
p1622
aS'street/urb761.jpg'
p1623
aS'street/urb798.jpg'
p1624
aS'street/urb805.jpg'
p1625
aS'street/urb830.jpg'
p1626
aS'street/urb837.jpg'
p1627
aS'street/urb848.jpg'
p1628
aS'street/urb866.jpg'
p1629
aS'street/urb885.jpg'
p1630
aS'street/urb927.jpg'
p1631
aS'street/urb928.jpg'
p1632
aS'street/urb983.jpg'
p1633
aS'street/urban997.jpg'
p1634
aS'tallbuilding/a212017.jpg'
p1635
aS'tallbuilding/a212018.jpg'
p1636
aS'tallbuilding/a212026.jpg'
p1637
aS'tallbuilding/a212033.jpg'
p1638
aS'tallbuilding/a212044.jpg'
p1639
aS'tallbuilding/a212055.jpg'
p1640
aS'tallbuilding/a223039.jpg'
p1641
aS'tallbuilding/a244009.jpg'
p1642
aS'tallbuilding/a244030.jpg'
p1643
aS'tallbuilding/a244040.jpg'
p1644
aS'tallbuilding/a244043.jpg'
p1645
aS'tallbuilding/a244046.jpg'
p1646
aS'tallbuilding/a244068.jpg'
p1647
aS'tallbuilding/a244069.jpg'
p1648
aS'tallbuilding/a248018.jpg'
p1649
aS'tallbuilding/a279032.jpg'
p1650
aS'tallbuilding/a279033.jpg'
p1651
aS'tallbuilding/a372007.jpg'
p1652
aS'tallbuilding/a438038.jpg'
p1653
aS'tallbuilding/a462003.jpg'
p1654
aS'tallbuilding/a462023.jpg'
p1655
aS'tallbuilding/a462025.jpg'
p1656
aS'tallbuilding/a462050.jpg'
p1657
aS'tallbuilding/a463068.jpg'
p1658
aS'tallbuilding/a487041.jpg'
p1659
aS'tallbuilding/a487045.jpg'
p1660
aS'tallbuilding/a487047.jpg'
p1661
aS'tallbuilding/a487049.jpg'
p1662
aS'tallbuilding/a487053.jpg'
p1663
aS'tallbuilding/a487056.jpg'
p1664
aS'tallbuilding/a487062.jpg'
p1665
aS'tallbuilding/a487065.jpg'
p1666
aS'tallbuilding/a487066.jpg'
p1667
aS'tallbuilding/a487069.jpg'
p1668
aS'tallbuilding/a487070.jpg'
p1669
aS'tallbuilding/a487082.jpg'
p1670
aS'tallbuilding/a487086.jpg'
p1671
aS'tallbuilding/a487092.jpg'
p1672
aS'tallbuilding/a487098.jpg'
p1673
aS'tallbuilding/a526065.jpg'
p1674
aS'tallbuilding/a526079.jpg'
p1675
aS'tallbuilding/a538076.jpg'
p1676
aS'tallbuilding/a562064.jpg'
p1677
aS'tallbuilding/a632016.jpg'
p1678
aS'tallbuilding/a636015.jpg'
p1679
aS'tallbuilding/a803053.jpg'
p1680
aS'tallbuilding/a804050.jpg'
p1681
aS'tallbuilding/a804071.jpg'
p1682
aS'tallbuilding/a805043.jpg'
p1683
aS'tallbuilding/a805044.jpg'
p1684
aS'tallbuilding/a805085.jpg'
p1685
aS'tallbuilding/a805096.jpg'
p1686
aS'tallbuilding/a806011.jpg'
p1687
aS'tallbuilding/a806016.jpg'
p1688
aS'tallbuilding/a806037.jpg'
p1689
aS'tallbuilding/a807065.jpg'
p1690
aS'tallbuilding/a808015.jpg'
p1691
aS'tallbuilding/a808075.jpg'
p1692
aS'tallbuilding/a808081.jpg'
p1693
aS'tallbuilding/a808090.jpg'
p1694
aS'tallbuilding/a812069.jpg'
p1695
aS'tallbuilding/archi28.jpg'
p1696
aS'tallbuilding/archi296.jpg'
p1697
aS'tallbuilding/archi337.jpg'
p1698
aS'tallbuilding/archi603.jpg'
p1699
aS'tallbuilding/archi611.jpg'
p1700
aS'tallbuilding/archi615.jpg'
p1701
aS'tallbuilding/archi621.jpg'
p1702
aS'tallbuilding/archi628.jpg'
p1703
aS'tallbuilding/archi67.jpg'
p1704
aS'tallbuilding/archi71.jpg'
p1705
aS'tallbuilding/art1001.jpg'
p1706
aS'tallbuilding/art101.jpg'
p1707
aS'tallbuilding/art1011.jpg'
p1708
aS'tallbuilding/art1012.jpg'
p1709
aS'tallbuilding/art1017.jpg'
p1710
aS'tallbuilding/art1022.jpg'
p1711
aS'tallbuilding/art1027.jpg'
p1712
aS'tallbuilding/art1028.jpg'
p1713
aS'tallbuilding/art1228.jpg'
p1714
aS'tallbuilding/art1310.jpg'
p1715
aS'tallbuilding/art1316.jpg'
p1716
aS'tallbuilding/art1346.jpg'
p1717
aS'tallbuilding/art1349.jpg'
p1718
aS'tallbuilding/art1350.jpg'
p1719
aS'tallbuilding/art1351.jpg'
p1720
aS'tallbuilding/art1352.jpg'
p1721
aS'tallbuilding/art1357.jpg'
p1722
aS'tallbuilding/art1387.jpg'
p1723
aS'tallbuilding/art1390.jpg'
p1724
aS'tallbuilding/art1392.jpg'
p1725
aS'tallbuilding/art1413.jpg'
p1726
aS'tallbuilding/art1481.jpg'
p1727
aS'tallbuilding/art1483.jpg'
p1728
aS'tallbuilding/art15.jpg'
p1729
aS'tallbuilding/art1538.jpg'
p1730
aS'tallbuilding/art1589.jpg'
p1731
aS'tallbuilding/art1593.jpg'
p1732
aS'tallbuilding/art1616.jpg'
p1733
aS'tallbuilding/art1617.jpg'
p1734
aS'tallbuilding/art1618.jpg'
p1735
aS'tallbuilding/art1624.jpg'
p1736
aS'tallbuilding/art1708.jpg'
p1737
aS'tallbuilding/art172.jpg'
p1738
aS'tallbuilding/art1720.jpg'
p1739
aS'tallbuilding/art1722.jpg'
p1740
aS'tallbuilding/art1725.jpg'
p1741
aS'tallbuilding/art1732.jpg'
p1742
aS'tallbuilding/art1747.jpg'
p1743
aS'tallbuilding/art1748.jpg'
p1744
aS'tallbuilding/art1749.jpg'
p1745
aS'tallbuilding/art1750.jpg'
p1746
aS'tallbuilding/art1751.jpg'
p1747
aS'tallbuilding/art1754.jpg'
p1748
aS'tallbuilding/art1756.jpg'
p1749
aS'tallbuilding/art181.jpg'
p1750
aS'tallbuilding/art183.jpg'
p1751
aS'tallbuilding/art218.jpg'
p1752
aS'tallbuilding/art221.jpg'
p1753
aS'tallbuilding/art224.jpg'
p1754
aS'tallbuilding/art232.jpg'
p1755
aS'tallbuilding/art260.jpg'
p1756
aS'tallbuilding/art296.jpg'
p1757
aS'tallbuilding/art306.jpg'
p1758
aS'tallbuilding/art309.jpg'
p1759
aS'tallbuilding/art315.jpg'
p1760
aS'tallbuilding/art326.jpg'
p1761
aS'tallbuilding/art350.jpg'
p1762
aS'tallbuilding/art352.jpg'
p1763
aS'tallbuilding/art385.jpg'
p1764
aS'tallbuilding/art391.jpg'
p1765
aS'tallbuilding/art392.jpg'
p1766
aS'tallbuilding/art424.jpg'
p1767
aS'tallbuilding/art425.jpg'
p1768
aS'tallbuilding/art430.jpg'
p1769
aS'tallbuilding/art435.jpg'
p1770
aS'tallbuilding/art442.jpg'
p1771
aS'tallbuilding/art446.jpg'
p1772
aS'tallbuilding/art447.jpg'
p1773
aS'tallbuilding/art453.jpg'
p1774
aS'tallbuilding/art457.jpg'
p1775
aS'tallbuilding/art459.jpg'
p1776
aS'tallbuilding/art473.jpg'
p1777
aS'tallbuilding/art523.jpg'
p1778
aS'tallbuilding/art525.jpg'
p1779
aS'tallbuilding/art528.jpg'
p1780
aS'tallbuilding/art56.jpg'
p1781
aS'tallbuilding/art572.jpg'
p1782
aS'tallbuilding/art589.jpg'
p1783
aS'tallbuilding/art617.jpg'
p1784
aS'tallbuilding/art733.jpg'
p1785
aS'tallbuilding/art736.jpg'
p1786
aS'tallbuilding/art840.jpg'
p1787
aS'tallbuilding/art854.jpg'
p1788
aS'tallbuilding/art899.jpg'
p1789
aS'tallbuilding/art943.jpg'
p1790
aS'tallbuilding/art945.jpg'
p1791
aS'tallbuilding/bost341.jpg'
p1792
aS'tallbuilding/bost390.jpg'
p1793
aS'tallbuilding/city10.jpg'
p1794
aS'tallbuilding/city12.jpg'
p1795
aS'tallbuilding/city15.jpg'
p1796
aS'tallbuilding/city22.jpg'
p1797
aS'tallbuilding/city24.jpg'
p1798
aS'tallbuilding/city32.jpg'
p1799
aS'tallbuilding/city38.jpg'
p1800
aS'tallbuilding/city5.jpg'
p1801
aS'tallbuilding/city50.jpg'
p1802
aS'tallbuilding/city60.jpg'
p1803
aS'tallbuilding/city65.jpg'
p1804
aS'tallbuilding/city7.jpg'
p1805
aS'tallbuilding/city70.jpg'
p1806
aS'tallbuilding/city8.jpg'
p1807
aS'tallbuilding/city86.jpg'
p1808
aS'tallbuilding/sky10.jpg'
p1809
aS'tallbuilding/sky13.jpg'
p1810
aS'tallbuilding/sky21.jpg'
p1811
aS'tallbuilding/sky22.jpg'
p1812
aS'tallbuilding/sky25.jpg'
p1813
aS'tallbuilding/sky3.jpg'
p1814
aS'tallbuilding/sky30.jpg'
p1815
aS'tallbuilding/sky34.jpg'
p1816
aS'tallbuilding/sky35.jpg'
p1817
aS'tallbuilding/sky42.jpg'
p1818
aS'tallbuilding/sky43.jpg'
p1819
aS'tallbuilding/sky7.jpg'
p1820
aS'tallbuilding/urb133.jpg'
p1821
aS'tallbuilding/urb153.jpg'
p1822
aS'tallbuilding/urb246.jpg'
p1823
aS'tallbuilding/urb390.jpg'
p1824
aS'tallbuilding/urb391.jpg'
p1825
aS'tallbuilding/urb398.jpg'
p1826
aS'tallbuilding/urb522.jpg'
p1827
aS'tallbuilding/urb529.jpg'
p1828
aS'tallbuilding/urb726.jpg'
p1829
aS'tallbuilding/urb792.jpg'
p1830
aS'tallbuilding/urb893.jpg'
p1831
aS'tallbuilding/urb899.jpg'
p1832
aS'tallbuilding/urb906.jpg'
p1833
aS'tallbuilding/urb907.jpg'
p1834
aS'tallbuilding/urb911.jpg'
p1835
aS'tallbuilding/urb914.jpg'
p1836
aS'tallbuilding/urb923.jpg'
p1837
aS'tallbuilding/urb974.jpg'
p1838
aS'tallbuilding/urb988.jpg'
p1839
aS'tallbuilding/urb992.jpg'
p1840
aS'tallbuilding/urban1003.jpg'
p1841
aS'tallbuilding/urban1009.jpg'
p1842
aS'tallbuilding/urban1015.jpg'
p1843
aS'tallbuilding/urban1028.jpg'
p1844
aS'tallbuilding/urban1038.jpg'
p1845
aS'tallbuilding/urban1044.jpg'
p1846
aS'tallbuilding/urban1056.jpg'
p1847
aS'tallbuilding/urban1057.jpg'
p1848
aS'tallbuilding/urban1064.jpg'
p1849
aS'tallbuilding/urban1081.jpg'
p1850
aS'tallbuilding/urban1110.jpg'
p1851
aS'tallbuilding/urban1124.jpg'
p1852
aS'tallbuilding/urban1141.jpg'
p1853
aS'tallbuilding/urban1150.jpg'
p1854
aS'tallbuilding/urban1152.jpg'
p1855
aS'tallbuilding/urban1158.jpg'
p1856
aS'tallbuilding/urban1172.jpg'
p1857
aS'tallbuilding/urban1177.jpg'
p1858
aS'tallbuilding/urban1193.jpg'
p1859
aS'tallbuilding/urban1210.jpg'
p1860
aS'tallbuilding/urban15.jpg'
p1861
aS'tallbuilding/urban158.jpg'
p1862
aS'tallbuilding/urban16.jpg'
p1863
aS'tallbuilding/urban166.jpg'
p1864
aS'tallbuilding/urban167.jpg'
p1865
aS'tallbuilding/urban171.jpg'
p1866
aS'tallbuilding/urban22.jpg'
p1867
aS'tallbuilding/urban28.jpg'
p1868
aS'tallbuilding/urban4.jpg'
p1869
aS'tallbuilding/urban445.jpg'
p1870
aS'tallbuilding/urban45.jpg'
p1871
aS'tallbuilding/urban649.jpg'
p1872
aS'tallbuilding/urban693.jpg'
p1873
aS'tallbuilding/urban732.jpg'
p1874
aS'tallbuilding/urban749.jpg'
p1875
aS'tallbuilding/urban780.jpg'
p1876
aS'tallbuilding/urban846.jpg'
p1877
aS'tallbuilding/urban982.jpg'
p1878
aS'tallbuilding/urban983.jpg'
p1879
aS'tallbuilding/urban987.jpg'
p1880
aS'tallbuilding/urban989.jpg'
p1881
aS'tallbuilding/urban991.jpg'
p1882
a.